; Function Attrs: nounwind sspstrong uwtable
define dso_local i64 @rb_gv_get(ptr noundef nonnull %0) local_unnamed_addr #0 {
  %2 = tail call fastcc i64 @find_global_id(ptr noundef %0)
  %.not = icmp eq i64 %2, 0
  br i1 %.not, label %3, label %4

3:                                                ; preds = %1
  tail call void (ptr, ...) @rb_warning(ptr noundef nonnull @.str.12, ptr noundef nonnull %0) #27
  br label %14

4:                                                ; preds = %1
  %5 = tail call fastcc ptr @rb_global_entry(i64 noundef %2)
  %6 = load ptr, ptr %5, align 8, !tbaa !58
  %7 = getelementptr inbounds nuw i8, ptr %6, i64 16
  %8 = load ptr, ptr %7, align 8, !tbaa !73
  %9 = getelementptr inbounds nuw i8, ptr %5, i64 8
  %10 = load i64, ptr %9, align 8, !tbaa !78
  %11 = getelementptr inbounds nuw i8, ptr %6, i64 8
  %12 = load ptr, ptr %11, align 8, !tbaa !77
  %13 = tail call i64 %8(i64 noundef %10, ptr noundef %12) #27
  br label %14

14:                                               ; preds = %4, %3
  %.0 = phi i64 [ %13, %4 ], [ 4, %3 ]
  ret i64 %.0
}